; Function Attrs: mustprogress uwtable
define hidden noundef nonnull align 8 dereferenceable(8) ptr @_ZN3sls10seq_plugin3lhsEP4expr(ptr noundef nonnull align 8 dereferenceable(768) %0, ptr noundef readonly captures(none) %1) local_unnamed_addr #3 align 2 {
  %3 = tail call noundef nonnull align 8 dereferenceable(224) ptr @_ZN3sls10seq_plugin8get_evalEP4expr(ptr noundef nonnull align 8 dereferenceable(768) %0, ptr noundef %1)
  %4 = getelementptr inbounds nuw i8, ptr %3, i64 208
  %5 = load ptr, ptr %4, align 8, !tbaa !78
  %6 = icmp eq ptr %5, null
  br i1 %6, label %_ZNK6vectorIP4exprLb0EjE5emptyEv.exit.thread, label %_ZNK6vectorIP4exprLb0EjE5emptyEv.exit

_ZNK6vectorIP4exprLb0EjE5emptyEv.exit:            ; preds = %2
  %7 = getelementptr inbounds i8, ptr %5, i64 -4
  %8 = load i32, ptr %7, align 4, !tbaa !130
  %9 = icmp eq i32 %8, 0
  br i1 %9, label %_ZNK6vectorIP4exprLb0EjE5emptyEv.exit.thread, label %37

_ZNK6vectorIP4exprLb0EjE5emptyEv.exit.thread:     ; preds = %2, %_ZNK6vectorIP4exprLb0EjE5emptyEv.exit
  %10 = getelementptr inbounds nuw i8, ptr %1, i64 4
  %11 = load i32, ptr %10, align 4
  %12 = and i32 %11, 65535
  %13 = icmp eq i32 %12, 0
  br i1 %13, label %14, label %33

14:                                               ; preds = %_ZNK6vectorIP4exprLb0EjE5emptyEv.exit.thread
  %15 = getelementptr inbounds nuw i8, ptr %1, i64 16
  %16 = load ptr, ptr %15, align 8, !tbaa !151
  %17 = getelementptr inbounds nuw i8, ptr %16, i64 24
  %18 = load ptr, ptr %17, align 8, !tbaa !156
  %.not.i.i.i.i.i = icmp eq ptr %18, null
  br i1 %.not.i.i.i.i.i, label %33, label %_ZNK11ast_manager5is_eqEPK4expr.exit.i

_ZNK11ast_manager5is_eqEPK4expr.exit.i:           ; preds = %14
  %19 = load i32, ptr %18, align 8, !tbaa !159
  %20 = icmp eq i32 %19, 0
  %21 = getelementptr inbounds nuw i8, ptr %18, i64 4
  %22 = load i32, ptr %21, align 4
  %23 = icmp eq i32 %22, 2
  %24 = select i1 %20, i1 %23, i1 false
  br i1 %24, label %25, label %33

25:                                               ; preds = %_ZNK11ast_manager5is_eqEPK4expr.exit.i
  %26 = getelementptr inbounds nuw i8, ptr %1, i64 24
  %27 = load i32, ptr %26, align 8, !tbaa !163
  %28 = icmp eq i32 %27, 2
  br i1 %28, label %_ZNK11ast_manager5is_eqEPK4exprRPS0_S4_.exit, label %33

_ZNK11ast_manager5is_eqEPK4exprRPS0_S4_.exit:     ; preds = %25
  %29 = getelementptr inbounds nuw i8, ptr %1, i64 32
  %30 = load ptr, ptr %29, align 8, !tbaa !143
  %31 = getelementptr inbounds nuw i8, ptr %1, i64 40
  %32 = load ptr, ptr %31, align 8, !tbaa !143
  br label %34

33:                                               ; preds = %25, %_ZNK11ast_manager5is_eqEPK4expr.exit.i, %_ZNK6vectorIP4exprLb0EjE5emptyEv.exit.thread, %14
  tail call void @_Z26notify_assertion_violationPKciS0_(ptr noundef nonnull @.str, i32 noundef 280, ptr noundef nonnull @.str.13)
  tail call void @_Z18invoke_exit_actionj(i32 noundef 114)
  br label %34

34:                                               ; preds = %_ZNK11ast_manager5is_eqEPK4exprRPS0_S4_.exit, %33
  %.015 = phi ptr [ null, %33 ], [ %32, %_ZNK11ast_manager5is_eqEPK4exprRPS0_S4_.exit ]
  %.0813 = phi ptr [ null, %33 ], [ %30, %_ZNK11ast_manager5is_eqEPK4exprRPS0_S4_.exit ]
  %35 = getelementptr inbounds nuw i8, ptr %0, i64 64
  tail call void @_ZNK8seq_util3str10get_concatEP4exprR10ptr_vectorIS1_E(ptr noundef nonnull align 8 dereferenceable(20) %35, ptr noundef %.0813, ptr noundef nonnull align 8 dereferenceable(8) %4)
  %36 = getelementptr inbounds nuw i8, ptr %3, i64 216
  tail call void @_ZNK8seq_util3str10get_concatEP4exprR10ptr_vectorIS1_E(ptr noundef nonnull align 8 dereferenceable(20) %35, ptr noundef %.015, ptr noundef nonnull align 8 dereferenceable(8) %36)
  br label %37

37:                                               ; preds = %34, %_ZNK6vectorIP4exprLb0EjE5emptyEv.exit
  ret ptr %4
}